target datalayout = "e-m:e-p270:32:32-p271:32:32-p272:64:64-i64:64-i128:128-f80:128-n8:16:32:64-S128"
target triple = "x86_64-pc-linux-gnu"

%struct.EState = type { i32, i32, ptr, ptr, ptr, i32, ptr, ptr, ptr, ptr, ptr, ptr, ptr, ptr, ptr, ptr, i32, ptr, ptr, ptr, ptr, ptr, ptr, ptr, ptr, ptr, ptr, i64, i64, i32, i32, i8, ptr, ptr, ptr, ptr, ptr, i8, i32, i32, ptr, i32, ptr, ptr, ptr, ptr }
%struct.ParallelExecutorInfo = type { ptr, ptr, ptr, ptr, ptr, ptr, ptr, i64, i8, ptr, ptr }
%struct.PlanState = type { i32, ptr, ptr, ptr, ptr, ptr, ptr, ptr, ptr, ptr, ptr, ptr, ptr, ptr, ptr, ptr, ptr, ptr, i8, ptr, ptr, ptr, ptr, ptr, i8, i8, i8, i8, i8, i8, i8, i8 }
%struct.ParallelContext = type { %struct.dlist_node, i32, i32, i32, i32, ptr, ptr, ptr, %struct.shm_toc_estimator, ptr, ptr, ptr, ptr, i32, ptr }
%struct.dlist_node = type { ptr, ptr }
%struct.shm_toc_estimator = type { i64, i64 }
%struct.FixedParallelExecutorState = type { i64, i64, i32, i32 }

@MyProc = external global ptr, align 8

; Function Attrs: nounwind uwtable
define internal ptr @ExecParallelSetupTupleQueues(ptr noundef %0, i1 noundef zeroext %1) #0 {
  %3 = alloca ptr, align 8
  %4 = alloca ptr, align 8
  %5 = alloca i8, align 1
  %6 = alloca ptr, align 8
  %7 = alloca ptr, align 8
  %8 = alloca i32, align 4
  %9 = alloca i32, align 4
  %10 = alloca ptr, align 8
  store ptr %0, ptr %4, align 8
  %11 = zext i1 %1 to i8
  store i8 %11, ptr %5, align 1
  call void @llvm.lifetime.start.p0(i64 8, ptr %6) #8
  call void @llvm.lifetime.start.p0(i64 8, ptr %7) #8
  call void @llvm.lifetime.start.p0(i64 4, ptr %8) #8
  %12 = load ptr, ptr %4, align 8
  %13 = getelementptr inbounds nuw %struct.ParallelContext, ptr %12, i32 0, i32 2
  %14 = load i32, ptr %13, align 4
  %15 = icmp eq i32 %14, 0
  br i1 %15, label %16, label %17

16:                                               ; preds = %2
  store ptr null, ptr %3, align 8
  store i32 1, ptr %9, align 4
  br label %79

17:                                               ; preds = %2
  %18 = load ptr, ptr %4, align 8
  %19 = getelementptr inbounds nuw %struct.ParallelContext, ptr %18, i32 0, i32 2
  %20 = load i32, ptr %19, align 4
  %21 = sext i32 %20 to i64
  %22 = mul i64 %21, 8
  %23 = call ptr @palloc(i64 noundef %22)
  store ptr %23, ptr %6, align 8
  %24 = load i8, ptr %5, align 1, !range !7, !noundef !8
  %25 = trunc i8 %24 to i1
  br i1 %25, label %36, label %26

26:                                               ; preds = %17
  %27 = load ptr, ptr %4, align 8
  %28 = getelementptr inbounds nuw %struct.ParallelContext, ptr %27, i32 0, i32 11
  %29 = load ptr, ptr %28, align 8
  %30 = load ptr, ptr %4, align 8
  %31 = getelementptr inbounds nuw %struct.ParallelContext, ptr %30, i32 0, i32 2
  %32 = load i32, ptr %31, align 4
  %33 = sext i32 %32 to i64
  %34 = call i64 @mul_size(i64 noundef 65536, i64 noundef %33)
  %35 = call ptr @shm_toc_allocate(ptr noundef %29, i64 noundef %34)
  store ptr %35, ptr %7, align 8
  br label %41

36:                                               ; preds = %17
  %37 = load ptr, ptr %4, align 8
  %38 = getelementptr inbounds nuw %struct.ParallelContext, ptr %37, i32 0, i32 11
  %39 = load ptr, ptr %38, align 8
  %40 = call ptr @shm_toc_lookup(ptr noundef %39, i64 noundef -2305843009213693947, i1 noundef zeroext false)
  store ptr %40, ptr %7, align 8
  br label %41

41:                                               ; preds = %36, %26
  store i32 0, ptr %8, align 4
  br label %42

42:                                               ; preds = %66, %41
  %43 = load i32, ptr %8, align 4
  %44 = load ptr, ptr %4, align 8
  %45 = getelementptr inbounds nuw %struct.ParallelContext, ptr %44, i32 0, i32 2
  %46 = load i32, ptr %45, align 4
  %47 = icmp slt i32 %43, %46
  br i1 %47, label %48, label %69

48:                                               ; preds = %42
  call void @llvm.lifetime.start.p0(i64 8, ptr %10) #8
  %49 = load ptr, ptr %7, align 8
  %50 = load i32, ptr %8, align 4
  %51 = sext i32 %50 to i64
  %52 = mul i64 %51, 65536
  %53 = getelementptr inbounds nuw i8, ptr %49, i64 %52
  %54 = call ptr @shm_mq_create(ptr noundef %53, i64 noundef 65536)
  store ptr %54, ptr %10, align 8
  %55 = load ptr, ptr %10, align 8
  %56 = load ptr, ptr @MyProc, align 8
  call void @shm_mq_set_receiver(ptr noundef %55, ptr noundef %56)
  %57 = load ptr, ptr %10, align 8
  %58 = load ptr, ptr %4, align 8
  %59 = getelementptr inbounds nuw %struct.ParallelContext, ptr %58, i32 0, i32 9
  %60 = load ptr, ptr %59, align 8
  %61 = call ptr @shm_mq_attach(ptr noundef %57, ptr noundef %60, ptr noundef null)
  %62 = load ptr, ptr %6, align 8
  %63 = load i32, ptr %8, align 4
  %64 = sext i32 %63 to i64
  %65 = getelementptr inbounds ptr, ptr %62, i64 %64
  store ptr %61, ptr %65, align 8
  call void @llvm.lifetime.end.p0(i64 8, ptr %10) #8
  br label %66

66:                                               ; preds = %48
  %67 = load i32, ptr %8, align 4
  %68 = add i32 %67, 1
  store i32 %68, ptr %8, align 4
  br label %42, !llvm.loop !10

69:                                               ; preds = %42
  %70 = load i8, ptr %5, align 1, !range !7, !noundef !8
  %71 = trunc i8 %70 to i1
  br i1 %71, label %77, label %72

72:                                               ; preds = %69
  %73 = load ptr, ptr %4, align 8
  %74 = getelementptr inbounds nuw %struct.ParallelContext, ptr %73, i32 0, i32 11
  %75 = load ptr, ptr %74, align 8
  %76 = load ptr, ptr %7, align 8
  call void @shm_toc_insert(ptr noundef %75, i64 noundef -2305843009213693947, ptr noundef %76)
  br label %77

77:                                               ; preds = %72, %69
  %78 = load ptr, ptr %6, align 8
  store ptr %78, ptr %3, align 8
  store i32 1, ptr %9, align 4
  br label %79

79:                                               ; preds = %77, %16
  call void @llvm.lifetime.end.p0(i64 4, ptr %8) #8
  call void @llvm.lifetime.end.p0(i64 8, ptr %7) #8
  call void @llvm.lifetime.end.p0(i64 8, ptr %6) #8
  %80 = load ptr, ptr %3, align 8
  ret ptr %80
}

; Function Attrs: nounwind uwtable
define dso_local void @ExecParallelReinitialize(ptr noundef %0, ptr noundef %1, ptr noundef %2) #0 {
  %4 = alloca ptr, align 8
  %5 = alloca ptr, align 8
  %6 = alloca ptr, align 8
  %7 = alloca ptr, align 8
  %8 = alloca ptr, align 8
  store ptr %0, ptr %4, align 8
  store ptr %1, ptr %5, align 8
  store ptr %2, ptr %6, align 8
  call void @llvm.lifetime.start.p0(i64 8, ptr %7) #8
  %9 = load ptr, ptr %4, align 8
  %10 = getelementptr inbounds nuw %struct.PlanState, ptr %9, i32 0, i32 2
  %11 = load ptr, ptr %10, align 8
  store ptr %11, ptr %7, align 8
  call void @llvm.lifetime.start.p0(i64 8, ptr %8) #8
  %12 = load ptr, ptr %6, align 8
  %13 = load ptr, ptr %7, align 8
  %14 = getelementptr inbounds nuw %struct.EState, ptr %13, i32 0, i32 35
  %15 = load ptr, ptr %14, align 8
  %16 = icmp ne ptr %15, null
  br i1 %16, label %17, label %21

17:                                               ; preds = %3
  %18 = load ptr, ptr %7, align 8
  %19 = getelementptr inbounds nuw %struct.EState, ptr %18, i32 0, i32 35
  %20 = load ptr, ptr %19, align 8
  br label %24

21:                                               ; preds = %3
  %22 = load ptr, ptr %7, align 8
  %23 = call ptr @MakePerTupleExprContext(ptr noundef %22)
  br label %24

24:                                               ; preds = %21, %17
  %25 = phi ptr [ %20, %17 ], [ %23, %21 ]
  call void @ExecSetParamPlanMulti(ptr noundef %12, ptr noundef %25)
  %26 = load ptr, ptr %5, align 8
  %27 = getelementptr inbounds nuw %struct.ParallelExecutorInfo, ptr %26, i32 0, i32 1
  %28 = load ptr, ptr %27, align 8
  call void @ReinitializeParallelDSM(ptr noundef %28)
  %29 = load ptr, ptr %5, align 8
  %30 = getelementptr inbounds nuw %struct.ParallelExecutorInfo, ptr %29, i32 0, i32 1
  %31 = load ptr, ptr %30, align 8
  %32 = call ptr @ExecParallelSetupTupleQueues(ptr noundef %31, i1 noundef zeroext true)
  %33 = load ptr, ptr %5, align 8
  %34 = getelementptr inbounds nuw %struct.ParallelExecutorInfo, ptr %33, i32 0, i32 9
  store ptr %32, ptr %34, align 8
  %35 = load ptr, ptr %5, align 8
  %36 = getelementptr inbounds nuw %struct.ParallelExecutorInfo, ptr %35, i32 0, i32 10
  store ptr null, ptr %36, align 8
  %37 = load ptr, ptr %5, align 8
  %38 = getelementptr inbounds nuw %struct.ParallelExecutorInfo, ptr %37, i32 0, i32 8
  store i8 0, ptr %38, align 8
  %39 = load ptr, ptr %5, align 8
  %40 = getelementptr inbounds nuw %struct.ParallelExecutorInfo, ptr %39, i32 0, i32 1
  %41 = load ptr, ptr %40, align 8
  %42 = getelementptr inbounds nuw %struct.ParallelContext, ptr %41, i32 0, i32 11
  %43 = load ptr, ptr %42, align 8
  %44 = call ptr @shm_toc_lookup(ptr noundef %43, i64 noundef -2305843009213693951, i1 noundef zeroext false)
  store ptr %44, ptr %8, align 8
  %45 = load ptr, ptr %8, align 8
  %46 = getelementptr inbounds nuw %struct.FixedParallelExecutorState, ptr %45, i32 0, i32 1
  %47 = load i64, ptr %46, align 8
  %48 = icmp ne i64 %47, 0
  br i1 %48, label %49, label %58

49:                                               ; preds = %24
  %50 = load ptr, ptr %5, align 8
  %51 = getelementptr inbounds nuw %struct.ParallelExecutorInfo, ptr %50, i32 0, i32 6
  %52 = load ptr, ptr %51, align 8
  %53 = load ptr, ptr %8, align 8
  %54 = getelementptr inbounds nuw %struct.FixedParallelExecutorState, ptr %53, i32 0, i32 1
  %55 = load i64, ptr %54, align 8
  call void @dsa_free(ptr noundef %52, i64 noundef %55)
  %56 = load ptr, ptr %8, align 8
  %57 = getelementptr inbounds nuw %struct.FixedParallelExecutorState, ptr %56, i32 0, i32 1
  store i64 0, ptr %57, align 8
  br label %58

58:                                               ; preds = %49, %24
  %59 = load ptr, ptr %6, align 8
  %60 = icmp eq ptr %59, null
  br i1 %60, label %75, label %61

61:                                               ; preds = %58
  %62 = load ptr, ptr %7, align 8
  %63 = load ptr, ptr %6, align 8
  %64 = load ptr, ptr %5, align 8
  %65 = getelementptr inbounds nuw %struct.ParallelExecutorInfo, ptr %64, i32 0, i32 6
  %66 = load ptr, ptr %65, align 8
  %67 = call i64 @SerializeParamExecParams(ptr noundef %62, ptr noundef %63, ptr noundef %66)
  %68 = load ptr, ptr %5, align 8
  %69 = getelementptr inbounds nuw %struct.ParallelExecutorInfo, ptr %68, i32 0, i32 7
  store i64 %67, ptr %69, align 8
  %70 = load ptr, ptr %5, align 8
  %71 = getelementptr inbounds nuw %struct.ParallelExecutorInfo, ptr %70, i32 0, i32 7
  %72 = load i64, ptr %71, align 8
  %73 = load ptr, ptr %8, align 8
  %74 = getelementptr inbounds nuw %struct.FixedParallelExecutorState, ptr %73, i32 0, i32 1
  store i64 %72, ptr %74, align 8
  br label %75

75:                                               ; preds = %61, %58
  %76 = load ptr, ptr %5, align 8
  %77 = getelementptr inbounds nuw %struct.ParallelExecutorInfo, ptr %76, i32 0, i32 6
  %78 = load ptr, ptr %77, align 8
  %79 = load ptr, ptr %7, align 8
  %80 = getelementptr inbounds nuw %struct.EState, ptr %79, i32 0, i32 40
  store ptr %78, ptr %80, align 8
  %81 = load ptr, ptr %4, align 8
  %82 = load ptr, ptr %5, align 8
  %83 = getelementptr inbounds nuw %struct.ParallelExecutorInfo, ptr %82, i32 0, i32 1
  %84 = load ptr, ptr %83, align 8
  %85 = call zeroext i1 @ExecParallelReInitializeDSM(ptr noundef %81, ptr noundef %84)
  %86 = load ptr, ptr %7, align 8
  %87 = getelementptr inbounds nuw %struct.EState, ptr %86, i32 0, i32 40
  store ptr null, ptr %87, align 8
  call void @llvm.lifetime.end.p0(i64 8, ptr %8) #8
  call void @llvm.lifetime.end.p0(i64 8, ptr %7) #8
  ret void
}