; Function Attrs: nounwind uwtable
define dso_local void @ExecParallelReinitialize(ptr noundef %0, ptr noundef captures(none) %1, ptr noundef %2) local_unnamed_addr #0 {
  %4 = getelementptr inbounds nuw i8, ptr %0, i64 16
  %5 = load ptr, ptr %4, align 8
  %6 = getelementptr inbounds nuw i8, ptr %5, i64 264
  %7 = load ptr, ptr %6, align 8
  %.not = icmp eq ptr %7, null
  br i1 %.not, label %8, label %10

8:                                                ; preds = %3
  %9 = tail call ptr @MakePerTupleExprContext(ptr noundef nonnull %5) #9
  br label %10

10:                                               ; preds = %3, %8
  %11 = phi ptr [ %9, %8 ], [ %7, %3 ]
  tail call void @ExecSetParamPlanMulti(ptr noundef %2, ptr noundef %11) #9
  %12 = getelementptr inbounds nuw i8, ptr %1, i64 8
  %13 = load ptr, ptr %12, align 8
  tail call void @ReinitializeParallelDSM(ptr noundef %13) #9
  %14 = load ptr, ptr %12, align 8
  %15 = getelementptr inbounds nuw i8, ptr %14, i64 20
  %16 = load i32, ptr %15, align 4
  %17 = icmp eq i32 %16, 0
  br i1 %17, label %ExecParallelSetupTupleQueues.exit, label %18

18:                                               ; preds = %10
  %19 = sext i32 %16 to i64
  %20 = shl nsw i64 %19, 3
  %21 = tail call ptr @palloc(i64 noundef %20) #9
  %22 = getelementptr inbounds nuw i8, ptr %14, i64 88
  %23 = load ptr, ptr %22, align 8
  %24 = tail call ptr @shm_toc_lookup(ptr noundef %23, i64 noundef -2305843009213693947, i1 noundef zeroext false) #9
  %25 = load i32, ptr %15, align 4
  %26 = icmp sgt i32 %25, 0
  br i1 %26, label %.lr.ph.i, label %ExecParallelSetupTupleQueues.exit

.lr.ph.i:                                         ; preds = %18
  %27 = getelementptr inbounds nuw i8, ptr %14, i64 72
  br label %28

28:                                               ; preds = %28, %.lr.ph.i
  %indvars.iv.i = phi i64 [ 0, %.lr.ph.i ], [ %indvars.iv.next.i, %28 ]
  %29 = shl nuw nsw i64 %indvars.iv.i, 16
  %30 = getelementptr inbounds nuw i8, ptr %24, i64 %29
  %31 = tail call ptr @shm_mq_create(ptr noundef %30, i64 noundef 65536) #9
  %32 = load ptr, ptr @MyProc, align 8
  tail call void @shm_mq_set_receiver(ptr noundef %31, ptr noundef %32) #9
  %33 = load ptr, ptr %27, align 8
  %34 = tail call ptr @shm_mq_attach(ptr noundef %31, ptr noundef %33, ptr noundef null) #9
  %35 = getelementptr inbounds nuw ptr, ptr %21, i64 %indvars.iv.i
  store ptr %34, ptr %35, align 8
  %indvars.iv.next.i = add nuw nsw i64 %indvars.iv.i, 1
  %36 = load i32, ptr %15, align 4
  %37 = sext i32 %36 to i64
  %38 = icmp slt i64 %indvars.iv.next.i, %37
  br i1 %38, label %28, label %ExecParallelSetupTupleQueues.exit, !llvm.loop !8

ExecParallelSetupTupleQueues.exit:                ; preds = %28, %18, %10
  %.0.i = phi ptr [ null, %10 ], [ %21, %18 ], [ %21, %28 ]
  %39 = getelementptr inbounds nuw i8, ptr %1, i64 72
  store ptr %.0.i, ptr %39, align 8
  %40 = getelementptr inbounds nuw i8, ptr %1, i64 80
  store ptr null, ptr %40, align 8
  %41 = getelementptr inbounds nuw i8, ptr %1, i64 64
  store i8 0, ptr %41, align 8
  %42 = load ptr, ptr %12, align 8
  %43 = getelementptr inbounds nuw i8, ptr %42, i64 88
  %44 = load ptr, ptr %43, align 8
  %45 = tail call ptr @shm_toc_lookup(ptr noundef %44, i64 noundef -2305843009213693951, i1 noundef zeroext false) #9
  %46 = getelementptr inbounds nuw i8, ptr %45, i64 8
  %47 = load i64, ptr %46, align 8
  %.not29 = icmp eq i64 %47, 0
  br i1 %.not29, label %51, label %48

48:                                               ; preds = %ExecParallelSetupTupleQueues.exit
  %49 = getelementptr inbounds nuw i8, ptr %1, i64 48
  %50 = load ptr, ptr %49, align 8
  tail call void @dsa_free(ptr noundef %50, i64 noundef %47) #9
  store i64 0, ptr %46, align 8
  br label %51

51:                                               ; preds = %48, %ExecParallelSetupTupleQueues.exit
  %52 = icmp eq ptr %2, null
  br i1 %52, label %58, label %53

53:                                               ; preds = %51
  %54 = getelementptr inbounds nuw i8, ptr %1, i64 48
  %55 = load ptr, ptr %54, align 8
  %56 = tail call fastcc i64 @SerializeParamExecParams(ptr noundef %5, ptr noundef %2, ptr noundef %55)
  %57 = getelementptr inbounds nuw i8, ptr %1, i64 56
  store i64 %56, ptr %57, align 8
  store i64 %56, ptr %46, align 8
  br label %58

58:                                               ; preds = %53, %51
  %59 = getelementptr inbounds nuw i8, ptr %1, i64 48
  %60 = load ptr, ptr %59, align 8
  %61 = getelementptr inbounds nuw i8, ptr %5, i64 296
  store ptr %60, ptr %61, align 8
  %62 = load ptr, ptr %12, align 8
  %63 = tail call zeroext i1 @ExecParallelReInitializeDSM(ptr noundef %0, ptr noundef %62)
  store ptr null, ptr %61, align 8
  ret void
}